target datalayout = "e-m:e-p270:32:32-p271:32:32-p272:64:64-i64:64-i128:128-f80:128-n8:16:32:64-S128"
target triple = "x86_64-pc-linux-gnu"

%struct.RCVLN = type { [5120 x i8], i32, i32, ptr, ptr }

@.str.1 = private unnamed_addr constant [17 x i8] c"UNKNOWN COMMAND\0A\00", align 1
@.str.2 = private unnamed_addr constant [21 x i8] c"Communication error\0A\00", align 1
@.str.3 = private unnamed_addr constant [50 x i8] c"Command rejected by clamd (wrong clamd version?)\0A\00", align 1
@.str.4 = private unnamed_addr constant [27 x i8] c"Overlong reply from clamd\0A\00", align 1

; Function Attrs: nounwind uwtable
define i32 @recvln(ptr noundef %0, ptr noundef %1, ptr noundef %2) #0 {
  %4 = alloca i32, align 4
  %5 = alloca ptr, align 8
  %6 = alloca ptr, align 8
  %7 = alloca ptr, align 8
  %8 = alloca ptr, align 8
  %9 = alloca i32, align 4
  store ptr %0, ptr %5, align 8
  store ptr %1, ptr %6, align 8
  store ptr %2, ptr %7, align 8
  br label %10

10:                                               ; preds = %211, %49, %3
  %11 = load ptr, ptr %5, align 8
  %12 = getelementptr inbounds %struct.RCVLN, ptr %11, i32 0, i32 2
  %13 = load i32, ptr %12, align 4
  %14 = icmp ne i32 %13, 0
  br i1 %14, label %81, label %15

15:                                               ; preds = %10
  %16 = load ptr, ptr %5, align 8
  %17 = getelementptr inbounds %struct.RCVLN, ptr %16, i32 0, i32 1
  %18 = load i32, ptr %17, align 8
  %19 = load ptr, ptr %5, align 8
  %20 = getelementptr inbounds %struct.RCVLN, ptr %19, i32 0, i32 3
  %21 = load ptr, ptr %20, align 8
  %22 = load ptr, ptr %5, align 8
  %23 = getelementptr inbounds %struct.RCVLN, ptr %22, i32 0, i32 3
  %24 = load ptr, ptr %23, align 8
  %25 = load ptr, ptr %5, align 8
  %26 = getelementptr inbounds %struct.RCVLN, ptr %25, i32 0, i32 0
  %27 = getelementptr inbounds [5120 x i8], ptr %26, i64 0, i64 0
  %28 = ptrtoint ptr %24 to i64
  %29 = ptrtoint ptr %27 to i64
  %30 = sub i64 %28, %29
  %31 = sub i64 5120, %30
  %32 = call i64 @recv(i32 noundef %18, ptr noundef %21, i64 noundef %31, i32 noundef 0)
  %33 = trunc i64 %32 to i32
  %34 = load ptr, ptr %5, align 8
  %35 = getelementptr inbounds %struct.RCVLN, ptr %34, i32 0, i32 2
  store i32 %33, ptr %35, align 4
  %36 = load ptr, ptr %5, align 8
  %37 = getelementptr inbounds %struct.RCVLN, ptr %36, i32 0, i32 2
  %38 = load i32, ptr %37, align 4
  %39 = icmp sle i32 %38, 0
  br i1 %39, label %40, label %80

40:                                               ; preds = %15
  %41 = load ptr, ptr %5, align 8
  %42 = getelementptr inbounds %struct.RCVLN, ptr %41, i32 0, i32 2
  %43 = load i32, ptr %42, align 4
  %44 = icmp ne i32 %43, 0
  br i1 %44, label %45, label %52

45:                                               ; preds = %40
  %46 = call ptr @__errno_location() #8
  %47 = load i32, ptr %46, align 4
  %48 = icmp eq i32 %47, 4
  br i1 %48, label %49, label %52

49:                                               ; preds = %45
  %50 = load ptr, ptr %5, align 8
  %51 = getelementptr inbounds %struct.RCVLN, ptr %50, i32 0, i32 2
  store i32 0, ptr %51, align 4
  br label %10

52:                                               ; preds = %45, %40
  %53 = load ptr, ptr %5, align 8
  %54 = getelementptr inbounds %struct.RCVLN, ptr %53, i32 0, i32 2
  %55 = load i32, ptr %54, align 4
  %56 = icmp ne i32 %55, 0
  br i1 %56, label %65, label %57

57:                                               ; preds = %52
  %58 = load ptr, ptr %5, align 8
  %59 = getelementptr inbounds %struct.RCVLN, ptr %58, i32 0, i32 3
  %60 = load ptr, ptr %59, align 8
  %61 = load ptr, ptr %5, align 8
  %62 = getelementptr inbounds %struct.RCVLN, ptr %61, i32 0, i32 0
  %63 = getelementptr inbounds [5120 x i8], ptr %62, i64 0, i64 0
  %64 = icmp ne ptr %60, %63
  br i1 %64, label %65, label %79

65:                                               ; preds = %57, %52
  %66 = load ptr, ptr %5, align 8
  %67 = getelementptr inbounds %struct.RCVLN, ptr %66, i32 0, i32 3
  %68 = load ptr, ptr %67, align 8
  store i8 0, ptr %68, align 1
  %69 = load ptr, ptr %5, align 8
  %70 = getelementptr inbounds %struct.RCVLN, ptr %69, i32 0, i32 0
  %71 = getelementptr inbounds [5120 x i8], ptr %70, i64 0, i64 0
  %72 = call i32 @strcmp(ptr noundef %71, ptr noundef @.str.1) #10
  %73 = icmp ne i32 %72, 0
  br i1 %73, label %74, label %76

74:                                               ; preds = %65
  %75 = call i32 (i32, ptr, ...) @logg(i32 noundef 5, ptr noundef @.str.2)
  br label %78

76:                                               ; preds = %65
  %77 = call i32 (i32, ptr, ...) @logg(i32 noundef 5, ptr noundef @.str.3)
  br label %78

78:                                               ; preds = %76, %74
  store i32 -1, ptr %4, align 4
  br label %212

79:                                               ; preds = %57
  store i32 0, ptr %4, align 4
  br label %212

80:                                               ; preds = %15
  br label %81

81:                                               ; preds = %80, %10
  %82 = load ptr, ptr %5, align 8
  %83 = getelementptr inbounds %struct.RCVLN, ptr %82, i32 0, i32 3
  %84 = load ptr, ptr %83, align 8
  %85 = load ptr, ptr %5, align 8
  %86 = getelementptr inbounds %struct.RCVLN, ptr %85, i32 0, i32 2
  %87 = load i32, ptr %86, align 4
  %88 = sext i32 %87 to i64
  %89 = call ptr @memchr(ptr noundef %84, i32 noundef 0, i64 noundef %88) #10
  store ptr %89, ptr %8, align 8
  %90 = icmp ne ptr %89, null
  br i1 %90, label %91, label %145

91:                                               ; preds = %81
  store i32 0, ptr %9, align 4
  %92 = load ptr, ptr %8, align 8
  %93 = getelementptr inbounds i8, ptr %92, i32 1
  store ptr %93, ptr %8, align 8
  %94 = load ptr, ptr %8, align 8
  %95 = load ptr, ptr %5, align 8
  %96 = getelementptr inbounds %struct.RCVLN, ptr %95, i32 0, i32 3
  %97 = load ptr, ptr %96, align 8
  %98 = ptrtoint ptr %94 to i64
  %99 = ptrtoint ptr %97 to i64
  %100 = sub i64 %98, %99
  %101 = load ptr, ptr %5, align 8
  %102 = getelementptr inbounds %struct.RCVLN, ptr %101, i32 0, i32 2
  %103 = load i32, ptr %102, align 4
  %104 = sext i32 %103 to i64
  %105 = sub nsw i64 %104, %100
  %106 = trunc i64 %105 to i32
  store i32 %106, ptr %102, align 4
  %107 = load ptr, ptr %5, align 8
  %108 = getelementptr inbounds %struct.RCVLN, ptr %107, i32 0, i32 4
  %109 = load ptr, ptr %108, align 8
  %110 = load ptr, ptr %6, align 8
  store ptr %109, ptr %110, align 8
  %111 = load ptr, ptr %7, align 8
  %112 = icmp ne ptr %111, null
  br i1 %112, label %113, label %116

113:                                              ; preds = %91
  %114 = load ptr, ptr %8, align 8
  %115 = load ptr, ptr %7, align 8
  store ptr %114, ptr %115, align 8
  br label %116

116:                                              ; preds = %113, %91
  %117 = load ptr, ptr %8, align 8
  %118 = load ptr, ptr %5, align 8
  %119 = getelementptr inbounds %struct.RCVLN, ptr %118, i32 0, i32 4
  %120 = load ptr, ptr %119, align 8
  %121 = ptrtoint ptr %117 to i64
  %122 = ptrtoint ptr %120 to i64
  %123 = sub i64 %121, %122
  %124 = trunc i64 %123 to i32
  store i32 %124, ptr %9, align 4
  %125 = load ptr, ptr %5, align 8
  %126 = getelementptr inbounds %struct.RCVLN, ptr %125, i32 0, i32 2
  %127 = load i32, ptr %126, align 4
  %128 = icmp ne i32 %127, 0
  br i1 %128, label %129, label %135

129:                                              ; preds = %116
  %130 = load ptr, ptr %8, align 8
  %131 = load ptr, ptr %5, align 8
  %132 = getelementptr inbounds %struct.RCVLN, ptr %131, i32 0, i32 3
  store ptr %130, ptr %132, align 8
  %133 = load ptr, ptr %5, align 8
  %134 = getelementptr inbounds %struct.RCVLN, ptr %133, i32 0, i32 4
  store ptr %130, ptr %134, align 8
  br label %143

135:                                              ; preds = %116
  %136 = load ptr, ptr %5, align 8
  %137 = getelementptr inbounds %struct.RCVLN, ptr %136, i32 0, i32 0
  %138 = getelementptr inbounds [5120 x i8], ptr %137, i64 0, i64 0
  %139 = load ptr, ptr %5, align 8
  %140 = getelementptr inbounds %struct.RCVLN, ptr %139, i32 0, i32 3
  store ptr %138, ptr %140, align 8
  %141 = load ptr, ptr %5, align 8
  %142 = getelementptr inbounds %struct.RCVLN, ptr %141, i32 0, i32 4
  store ptr %138, ptr %142, align 8
  br label %143

143:                                              ; preds = %135, %129
  %144 = load i32, ptr %9, align 4
  store i32 %144, ptr %4, align 4
  br label %212

145:                                              ; preds = %81
  %146 = load ptr, ptr %5, align 8
  %147 = getelementptr inbounds %struct.RCVLN, ptr %146, i32 0, i32 3
  %148 = load ptr, ptr %147, align 8
  %149 = load ptr, ptr %5, align 8
  %150 = getelementptr inbounds %struct.RCVLN, ptr %149, i32 0, i32 4
  %151 = load ptr, ptr %150, align 8
  %152 = ptrtoint ptr %148 to i64
  %153 = ptrtoint ptr %151 to i64
  %154 = sub i64 %152, %153
  %155 = load ptr, ptr %5, align 8
  %156 = getelementptr inbounds %struct.RCVLN, ptr %155, i32 0, i32 2
  %157 = load i32, ptr %156, align 4
  %158 = sext i32 %157 to i64
  %159 = add nsw i64 %158, %154
  %160 = trunc i64 %159 to i32
  store i32 %160, ptr %156, align 4
  %161 = load ptr, ptr %8, align 8
  %162 = icmp ne ptr %161, null
  br i1 %162, label %171, label %163

163:                                              ; preds = %145
  %164 = load ptr, ptr %5, align 8
  %165 = getelementptr inbounds %struct.RCVLN, ptr %164, i32 0, i32 2
  %166 = load i32, ptr %165, align 4
  %167 = sext i32 %166 to i64
  %168 = icmp eq i64 %167, 5120
  br i1 %168, label %169, label %171

169:                                              ; preds = %163
  %170 = call i32 (i32, ptr, ...) @logg(i32 noundef 5, ptr noundef @.str.4)
  store i32 -1, ptr %4, align 4
  br label %212

171:                                              ; preds = %163, %145
  %172 = load ptr, ptr %8, align 8
  %173 = icmp ne ptr %172, null
  br i1 %173, label %211, label %174

174:                                              ; preds = %171
  %175 = load ptr, ptr %5, align 8
  %176 = getelementptr inbounds %struct.RCVLN, ptr %175, i32 0, i32 0
  %177 = getelementptr inbounds [5120 x i8], ptr %176, i64 0, i64 0
  %178 = load ptr, ptr %5, align 8
  %179 = getelementptr inbounds %struct.RCVLN, ptr %178, i32 0, i32 4
  %180 = load ptr, ptr %179, align 8
  %181 = icmp ne ptr %177, %180
  br i1 %181, label %182, label %198

182:                                              ; preds = %174
  %183 = load ptr, ptr %5, align 8
  %184 = getelementptr inbounds %struct.RCVLN, ptr %183, i32 0, i32 0
  %185 = getelementptr inbounds [5120 x i8], ptr %184, i64 0, i64 0
  %186 = load ptr, ptr %5, align 8
  %187 = getelementptr inbounds %struct.RCVLN, ptr %186, i32 0, i32 4
  %188 = load ptr, ptr %187, align 8
  %189 = load ptr, ptr %5, align 8
  %190 = getelementptr inbounds %struct.RCVLN, ptr %189, i32 0, i32 2
  %191 = load i32, ptr %190, align 4
  %192 = sext i32 %191 to i64
  call void @llvm.memmove.p0.p0.i64(ptr align 8 %185, ptr align 1 %188, i64 %192, i1 false)
  %193 = load ptr, ptr %5, align 8
  %194 = getelementptr inbounds %struct.RCVLN, ptr %193, i32 0, i32 0
  %195 = getelementptr inbounds [5120 x i8], ptr %194, i64 0, i64 0
  %196 = load ptr, ptr %5, align 8
  %197 = getelementptr inbounds %struct.RCVLN, ptr %196, i32 0, i32 4
  store ptr %195, ptr %197, align 8
  br label %198

198:                                              ; preds = %182, %174
  %199 = load ptr, ptr %5, align 8
  %200 = getelementptr inbounds %struct.RCVLN, ptr %199, i32 0, i32 4
  %201 = load ptr, ptr %200, align 8
  %202 = load ptr, ptr %5, align 8
  %203 = getelementptr inbounds %struct.RCVLN, ptr %202, i32 0, i32 2
  %204 = load i32, ptr %203, align 4
  %205 = sext i32 %204 to i64
  %206 = getelementptr inbounds i8, ptr %201, i64 %205
  %207 = load ptr, ptr %5, align 8
  %208 = getelementptr inbounds %struct.RCVLN, ptr %207, i32 0, i32 3
  store ptr %206, ptr %208, align 8
  %209 = load ptr, ptr %5, align 8
  %210 = getelementptr inbounds %struct.RCVLN, ptr %209, i32 0, i32 2
  store i32 0, ptr %210, align 4
  br label %211

211:                                              ; preds = %198, %171
  br label %10

212:                                              ; preds = %169, %143, %79, %78
  %213 = load i32, ptr %4, align 4
  ret i32 %213
}