; Function Attrs: nounwind uwtable
define i32 @recvln(ptr noundef %0, ptr nocapture noundef writeonly %1, ptr noundef writeonly %2) local_unnamed_addr #0 {
  %4 = getelementptr inbounds i8, ptr %0, i64 5124
  %5 = getelementptr inbounds i8, ptr %0, i64 5120
  %6 = getelementptr inbounds i8, ptr %0, i64 5128
  %7 = ptrtoint ptr %0 to i64
  %.neg = add i64 %7, 5120
  %8 = getelementptr inbounds i8, ptr %0, i64 5136
  %.pre = load i32, ptr %4, align 4
  br label %9

9:                                                ; preds = %.backedge, %3
  %10 = phi i32 [ 0, %.backedge ], [ %.pre, %3 ]
  %.not = icmp eq i32 %10, 0
  %.pre87 = load ptr, ptr %6, align 8
  br i1 %.not, label %11, label %32

11:                                               ; preds = %9
  %12 = load i32, ptr %5, align 8
  %13 = ptrtoint ptr %.pre87 to i64
  %14 = sub i64 %.neg, %13
  %15 = tail call i64 @recv(i32 noundef %12, ptr noundef %.pre87, i64 noundef %14, i32 noundef 0) #14
  %16 = trunc i64 %15 to i32
  store i32 %16, ptr %4, align 4
  %17 = icmp slt i32 %16, 1
  br i1 %17, label %18, label %._crit_edge

._crit_edge:                                      ; preds = %11
  %.pre86 = load ptr, ptr %6, align 8
  br label %32

18:                                               ; preds = %11
  %.not57 = icmp eq i32 %16, 0
  br i1 %.not57, label %23, label %19

19:                                               ; preds = %18
  %20 = tail call ptr @__errno_location() #15
  %21 = load i32, ptr %20, align 4
  %22 = icmp eq i32 %21, 4
  br i1 %22, label %.backedge, label %.loopexit

.backedge:                                        ; preds = %19, %64
  store i32 0, ptr %4, align 4
  br label %9

23:                                               ; preds = %18
  %24 = load ptr, ptr %6, align 8
  %.not59 = icmp eq ptr %24, %0
  br i1 %.not59, label %68, label %25

.loopexit:                                        ; preds = %19
  %.pre90 = load ptr, ptr %6, align 8
  br label %25

25:                                               ; preds = %.loopexit, %23
  %26 = phi ptr [ %.pre90, %.loopexit ], [ %24, %23 ]
  store i8 0, ptr %26, align 1
  %27 = tail call i32 @strcmp(ptr noundef nonnull dereferenceable(1) %0, ptr noundef nonnull dereferenceable(17) @.str.1) #16
  %.not60 = icmp eq i32 %27, 0
  br i1 %.not60, label %30, label %28

28:                                               ; preds = %25
  %29 = tail call i32 (i32, ptr, ...) @logg(i32 noundef 5, ptr noundef nonnull @.str.2) #14
  br label %68

30:                                               ; preds = %25
  %31 = tail call i32 (i32, ptr, ...) @logg(i32 noundef 5, ptr noundef nonnull @.str.3) #14
  br label %68

32:                                               ; preds = %._crit_edge, %9
  %33 = phi i32 [ %16, %._crit_edge ], [ %10, %9 ]
  %34 = phi ptr [ %.pre86, %._crit_edge ], [ %.pre87, %9 ]
  %35 = sext i32 %33 to i64
  %36 = tail call ptr @memchr(ptr noundef %34, i32 noundef 0, i64 noundef %35) #16
  %.not61 = icmp eq ptr %36, null
  br i1 %.not61, label %51, label %37

37:                                               ; preds = %32
  %38 = getelementptr inbounds i8, ptr %36, i64 1
  %39 = ptrtoint ptr %38 to i64
  %40 = ptrtoint ptr %34 to i64
  %.neg63 = sub i64 %40, %39
  %41 = trunc i64 %.neg63 to i32
  %42 = add i32 %33, %41
  store i32 %42, ptr %4, align 4
  %43 = load ptr, ptr %8, align 8
  store ptr %43, ptr %1, align 8
  %.not64 = icmp eq ptr %2, null
  br i1 %.not64, label %45, label %44

44:                                               ; preds = %37
  store ptr %38, ptr %2, align 8
  %.pre88 = load ptr, ptr %8, align 8
  br label %45

45:                                               ; preds = %44, %37
  %46 = phi ptr [ %.pre88, %44 ], [ %43, %37 ]
  %47 = ptrtoint ptr %46 to i64
  %48 = sub i64 %39, %47
  %49 = trunc i64 %48 to i32
  %50 = load i32, ptr %4, align 4
  %.not65 = icmp eq i32 %50, 0
  %. = select i1 %.not65, ptr %0, ptr %38
  store ptr %., ptr %6, align 8
  store ptr %., ptr %8, align 8
  br label %68

51:                                               ; preds = %32
  %52 = load ptr, ptr %8, align 8
  %53 = ptrtoint ptr %34 to i64
  %54 = ptrtoint ptr %52 to i64
  %55 = sub i64 %53, %54
  %56 = trunc i64 %55 to i32
  %57 = add i32 %33, %56
  store i32 %57, ptr %4, align 4
  %58 = icmp eq i32 %57, 5120
  br i1 %58, label %59, label %61

59:                                               ; preds = %51
  %60 = tail call i32 (i32, ptr, ...) @logg(i32 noundef 5, ptr noundef nonnull @.str.4) #14
  br label %68

61:                                               ; preds = %51
  %.not62 = icmp eq ptr %52, %0
  br i1 %.not62, label %64, label %62

62:                                               ; preds = %61
  %63 = sext i32 %57 to i64
  tail call void @llvm.memmove.p0.p0.i64(ptr nonnull align 8 %0, ptr align 1 %52, i64 %63, i1 false)
  store ptr %0, ptr %8, align 8
  %.pre89 = load i32, ptr %4, align 4
  br label %64

64:                                               ; preds = %62, %61
  %65 = phi i32 [ %.pre89, %62 ], [ %57, %61 ]
  %66 = sext i32 %65 to i64
  %67 = getelementptr inbounds i8, ptr %0, i64 %66
  store ptr %67, ptr %6, align 8
  br label %.backedge

68:                                               ; preds = %23, %28, %30, %59, %45
  %.0 = phi i32 [ %49, %45 ], [ -1, %59 ], [ -1, %30 ], [ -1, %28 ], [ 0, %23 ]
  ret i32 %.0
}